target datalayout = "e-m:e-p270:32:32-p271:32:32-p272:64:64-i64:64-i128:128-f80:128-n8:16:32:64-S128"
target triple = "x86_64-pc-linux-gnu"

%class.btVector3 = type { [4 x float] }
%class.btGImpactShapeInterface = type { %class.btConcaveShape.base, %class.btAABB, i8, %class.btVector3, %class.btGImpactQuantizedBvh }
%class.btConcaveShape.base = type <{ %class.btCollisionShape, float }>
%class.btCollisionShape = type { ptr, i32, ptr, i32, i32 }
%class.btAABB = type { %class.btVector3, %class.btVector3 }
%class.btGImpactQuantizedBvh = type { %class.btQuantizedBvhTree, ptr }
%class.btQuantizedBvhTree = type { i32, [4 x i8], %class.GIM_QUANTIZED_BVH_NODE_ARRAY, %class.btAABB, %class.btVector3 }
%class.GIM_QUANTIZED_BVH_NODE_ARRAY = type { %class.btAlignedObjectArray.base, [7 x i8] }
%class.btAlignedObjectArray.base = type <{ [4 x i8], i32, i32, [4 x i8], ptr, i8 }>
%class.btGImpactMeshShape = type { %class.btGImpactShapeInterface, ptr, %class.btAlignedObjectArray.4 }
%class.btAlignedObjectArray.4 = type <{ [4 x i8], i32, i32, [4 x i8], ptr, i8, [7 x i8] }>
%struct.btGImpactMeshShapeData = type { %struct.btCollisionShapeData, %struct.btStridingMeshInterfaceData, %struct.btVector3FloatData, float, i32 }
%struct.btCollisionShapeData = type { ptr, i32, [4 x i8] }
%struct.btStridingMeshInterfaceData = type { ptr, %struct.btVector3FloatData, i32, [4 x i8] }
%struct.btVector3FloatData = type { [4 x float] }
%class.btConcaveShape = type <{ %class.btCollisionShape, float, [4 x i8] }>

@.str = private unnamed_addr constant [23 x i8] c"btGImpactMeshShapeData\00", align 1

; Function Attrs: inlinehint mustprogress nounwind uwtable
define linkonce_odr dso_local void @_ZNK9btVector314serializeFloatER18btVector3FloatData(ptr noundef nonnull align 4 dereferenceable(16) %0, ptr noundef nonnull align 4 dereferenceable(16) %1) #3 comdat align 2 {
  %3 = alloca ptr, align 8
  %4 = alloca ptr, align 8
  %5 = alloca i32, align 4
  store ptr %0, ptr %3, align 8, !tbaa !64
  store ptr %1, ptr %4, align 8, !tbaa !133
  %6 = load ptr, ptr %3, align 8
  call void @llvm.lifetime.start.p0(i64 4, ptr %5) #14
  store i32 0, ptr %5, align 4, !tbaa !9
  br label %7

7:                                                ; preds = %22, %2
  %8 = load i32, ptr %5, align 4, !tbaa !9
  %9 = icmp slt i32 %8, 4
  br i1 %9, label %11, label %10

10:                                               ; preds = %7
  call void @llvm.lifetime.end.p0(i64 4, ptr %5) #14
  br label %25

11:                                               ; preds = %7
  %12 = getelementptr inbounds nuw %class.btVector3, ptr %6, i32 0, i32 0
  %13 = load i32, ptr %5, align 4, !tbaa !9
  %14 = sext i32 %13 to i64
  %15 = getelementptr inbounds [4 x float], ptr %12, i64 0, i64 %14
  %16 = load float, ptr %15, align 4, !tbaa !43
  %17 = load ptr, ptr %4, align 8, !tbaa !133
  %18 = getelementptr inbounds nuw %struct.btVector3FloatData, ptr %17, i32 0, i32 0
  %19 = load i32, ptr %5, align 4, !tbaa !9
  %20 = sext i32 %19 to i64
  %21 = getelementptr inbounds [4 x float], ptr %18, i64 0, i64 %20
  store float %16, ptr %21, align 4, !tbaa !43
  br label %22

22:                                               ; preds = %11
  %23 = load i32, ptr %5, align 4, !tbaa !9
  %24 = add nsw i32 %23, 1
  store i32 %24, ptr %5, align 4, !tbaa !9
  br label %7, !llvm.loop !135

25:                                               ; preds = %10
  ret void
}

; Function Attrs: mustprogress uwtable
define dso_local noundef ptr @_ZNK18btGImpactMeshShape9serializeEPvP12btSerializer(ptr noundef nonnull align 8 dereferenceable(224) %0, ptr noundef %1, ptr noundef %2) unnamed_addr #2 align 2 {
  %4 = alloca ptr, align 8
  %5 = alloca ptr, align 8
  %6 = alloca ptr, align 8
  %7 = alloca ptr, align 8
  store ptr %0, ptr %4, align 8, !tbaa !87
  store ptr %1, ptr %5, align 8, !tbaa !61
  store ptr %2, ptr %6, align 8, !tbaa !119
  %8 = load ptr, ptr %4, align 8
  call void @llvm.lifetime.start.p0(i64 8, ptr %7) #14
  %9 = load ptr, ptr %5, align 8, !tbaa !61
  store ptr %9, ptr %7, align 8, !tbaa !121
  %10 = load ptr, ptr %7, align 8, !tbaa !121
  %11 = getelementptr inbounds nuw %struct.btGImpactMeshShapeData, ptr %10, i32 0, i32 0
  %12 = load ptr, ptr %6, align 8, !tbaa !119
  %13 = call noundef ptr @_ZNK16btCollisionShape9serializeEPvP12btSerializer(ptr noundef nonnull align 8 dereferenceable(32) %8, ptr noundef %11, ptr noundef %12)
  %14 = getelementptr inbounds nuw %class.btGImpactMeshShape, ptr %8, i32 0, i32 1
  %15 = load ptr, ptr %14, align 8, !tbaa !123
  %16 = load ptr, ptr %7, align 8, !tbaa !121
  %17 = getelementptr inbounds nuw %struct.btGImpactMeshShapeData, ptr %16, i32 0, i32 1
  %18 = load ptr, ptr %6, align 8, !tbaa !119
  %19 = load ptr, ptr %15, align 8, !tbaa !16
  %20 = getelementptr inbounds ptr, ptr %19, i64 14
  %21 = load ptr, ptr %20, align 8
  %22 = call noundef ptr %21(ptr noundef nonnull align 8 dereferenceable(24) %15, ptr noundef %17, ptr noundef %18)
  %23 = getelementptr inbounds nuw %class.btConcaveShape, ptr %8, i32 0, i32 1
  %24 = load float, ptr %23, align 8, !tbaa !125
  %25 = load ptr, ptr %7, align 8, !tbaa !121
  %26 = getelementptr inbounds nuw %struct.btGImpactMeshShapeData, ptr %25, i32 0, i32 3
  store float %24, ptr %26, align 8, !tbaa !126
  %27 = getelementptr inbounds nuw %class.btGImpactShapeInterface, ptr %8, i32 0, i32 3
  %28 = load ptr, ptr %7, align 8, !tbaa !121
  %29 = getelementptr inbounds nuw %struct.btGImpactMeshShapeData, ptr %28, i32 0, i32 2
  call void @_ZNK9btVector314serializeFloatER18btVector3FloatData(ptr noundef nonnull align 4 dereferenceable(16) %27, ptr noundef nonnull align 4 dereferenceable(16) %29)
  %30 = load ptr, ptr %8, align 8, !tbaa !16
  %31 = getelementptr inbounds ptr, ptr %30, i64 20
  %32 = load ptr, ptr %31, align 8
  %33 = call noundef i32 %32(ptr noundef nonnull align 8 dereferenceable(224) %8)
  %34 = load ptr, ptr %7, align 8, !tbaa !121
  %35 = getelementptr inbounds nuw %struct.btGImpactMeshShapeData, ptr %34, i32 0, i32 4
  store i32 %33, ptr %35, align 4, !tbaa !132
  call void @llvm.lifetime.end.p0(i64 8, ptr %7) #14
  ret ptr @.str
}