; Function Attrs: mustprogress uwtable
define dso_local noundef ptr @_ZNK18btGImpactMeshShape9serializeEPvP12btSerializer(ptr noundef nonnull align 8 dereferenceable(224) %0, ptr noundef %1, ptr noundef %2) unnamed_addr #0 align 2 {
  %4 = tail call noundef ptr @_ZNK16btCollisionShape9serializeEPvP12btSerializer(ptr noundef nonnull align 8 dereferenceable(32) %0, ptr noundef %1, ptr noundef %2)
  %5 = getelementptr inbounds nuw i8, ptr %0, i64 184
  %6 = load ptr, ptr %5, align 8, !tbaa !98
  %7 = getelementptr inbounds nuw i8, ptr %1, i64 16
  %8 = load ptr, ptr %6, align 8, !tbaa !30
  %9 = getelementptr inbounds nuw i8, ptr %8, i64 112
  %10 = load ptr, ptr %9, align 8
  %11 = tail call noundef ptr %10(ptr noundef nonnull align 8 dereferenceable(24) %6, ptr noundef nonnull %7, ptr noundef %2)
  %12 = getelementptr inbounds nuw i8, ptr %0, i64 32
  %13 = load float, ptr %12, align 8, !tbaa !100
  %14 = getelementptr inbounds nuw i8, ptr %1, i64 64
  store float %13, ptr %14, align 8, !tbaa !101
  %15 = getelementptr inbounds nuw i8, ptr %0, i64 72
  %16 = getelementptr inbounds nuw i8, ptr %1, i64 48
  br label %17

17:                                               ; preds = %17, %3
  %indvars.iv.i = phi i64 [ 0, %3 ], [ %indvars.iv.next.i, %17 ]
  %18 = getelementptr inbounds nuw [4 x float], ptr %15, i64 0, i64 %indvars.iv.i
  %19 = load float, ptr %18, align 4, !tbaa !23
  %20 = getelementptr inbounds nuw [4 x float], ptr %16, i64 0, i64 %indvars.iv.i
  store float %19, ptr %20, align 4, !tbaa !23
  %indvars.iv.next.i = add nuw nsw i64 %indvars.iv.i, 1
  %exitcond.not.i = icmp eq i64 %indvars.iv.next.i, 4
  br i1 %exitcond.not.i, label %_ZNK9btVector314serializeFloatER18btVector3FloatData.exit, label %17, !llvm.loop !107

_ZNK9btVector314serializeFloatER18btVector3FloatData.exit: ; preds = %17
  %21 = load ptr, ptr %0, align 8, !tbaa !30
  %22 = getelementptr inbounds nuw i8, ptr %21, i64 160
  %23 = load ptr, ptr %22, align 8
  %24 = tail call noundef i32 %23(ptr noundef nonnull align 8 dereferenceable(224) %0)
  %25 = getelementptr inbounds nuw i8, ptr %1, i64 68
  store i32 %24, ptr %25, align 4, !tbaa !108
  ret ptr @.str
}